; Function Attrs: mustprogress nounwind uwtable
define dso_local void @_ZNK4llvm13CSEMIRBuilder12profileSrcOpERKNS_5SrcOpERNS_23GISelInstProfileBuilderE(ptr nocapture noundef nonnull readnone align 8 dereferenceable(88) %0, ptr nocapture noundef nonnull readonly align 8 dereferenceable(20) %1, ptr noundef nonnull align 8 dereferenceable(16) %2) local_unnamed_addr #1 align 2 {
  %4 = getelementptr inbounds nuw i8, ptr %1, i64 16
  %5 = load i32, ptr %4, align 8
  switch i32 %5, label %_ZNK4llvm5SrcOp6getRegEv.exit [
    i32 3, label %6
    i32 2, label %9
    i32 1, label %13
  ]

6:                                                ; preds = %3
  %7 = load i64, ptr %1, align 8
  %8 = tail call noundef nonnull align 8 dereferenceable(16) ptr @_ZNK4llvm23GISelInstProfileBuilder18addNodeIDImmediateEl(ptr noundef nonnull align 8 dereferenceable(16) %2, i64 noundef %7) #16
  br label %20

9:                                                ; preds = %3
  %10 = load i32, ptr %1, align 8
  %11 = zext i32 %10 to i64
  %12 = tail call noundef nonnull align 8 dereferenceable(16) ptr @_ZNK4llvm23GISelInstProfileBuilder18addNodeIDImmediateEl(ptr noundef nonnull align 8 dereferenceable(16) %2, i64 noundef %11) #16
  br label %20

13:                                               ; preds = %3
  %14 = getelementptr inbounds nuw i8, ptr %1, i64 8
  %15 = load ptr, ptr %14, align 8
  %16 = getelementptr inbounds nuw i8, ptr %15, i64 32
  %17 = load ptr, ptr %16, align 8
  %18 = getelementptr inbounds nuw i8, ptr %17, i64 4
  br label %_ZNK4llvm5SrcOp6getRegEv.exit

_ZNK4llvm5SrcOp6getRegEv.exit:                    ; preds = %3, %13
  %.sroa.0.0.in.i = phi ptr [ %18, %13 ], [ %1, %3 ]
  %.sroa.0.0.i = load i32, ptr %.sroa.0.0.in.i, align 4
  %19 = tail call noundef nonnull align 8 dereferenceable(16) ptr @_ZNK4llvm23GISelInstProfileBuilder16addNodeIDRegTypeENS_8RegisterE(ptr noundef nonnull align 8 dereferenceable(16) %2, i32 %.sroa.0.0.i) #16
  br label %20

20:                                               ; preds = %_ZNK4llvm5SrcOp6getRegEv.exit, %9, %6
  ret void
}